target datalayout = "e-m:e-p270:32:32-p271:32:32-p272:64:64-i64:64-i128:128-f80:128-n8:16:32:64-S128"
target triple = "x86_64-pc-linux-gnu"

@.str = private unnamed_addr constant [32 x i8] c"../openssl/crypto/pem/pem_pk8.c\00", align 1
@__func__.do_pk8pkey_fp = private unnamed_addr constant [14 x i8] c"do_pk8pkey_fp\00", align 1

; Function Attrs: nounwind uwtable
define internal i32 @do_pk8pkey_fp(ptr noundef %0, ptr noundef %1, i32 noundef %2, i32 noundef %3, ptr noundef %4, ptr noundef %5, i32 noundef %6, ptr noundef %7, ptr noundef %8, ptr noundef %9) #0 {
  %11 = alloca i32, align 4
  %12 = alloca ptr, align 8
  %13 = alloca ptr, align 8
  %14 = alloca i32, align 4
  %15 = alloca i32, align 4
  %16 = alloca ptr, align 8
  %17 = alloca ptr, align 8
  %18 = alloca i32, align 4
  %19 = alloca ptr, align 8
  %20 = alloca ptr, align 8
  %21 = alloca ptr, align 8
  %22 = alloca ptr, align 8
  %23 = alloca i32, align 4
  %24 = alloca i32, align 4
  store ptr %0, ptr %12, align 8, !tbaa !25
  store ptr %1, ptr %13, align 8, !tbaa !8
  store i32 %2, ptr %14, align 4, !tbaa !10
  store i32 %3, ptr %15, align 4, !tbaa !10
  store ptr %4, ptr %16, align 8, !tbaa !15
  store ptr %5, ptr %17, align 8, !tbaa !12
  store i32 %6, ptr %18, align 4, !tbaa !10
  store ptr %7, ptr %19, align 8, !tbaa !14
  store ptr %8, ptr %20, align 8, !tbaa !14
  store ptr %9, ptr %21, align 8, !tbaa !12
  call void @llvm.lifetime.start.p0(i64 8, ptr %22) #4
  call void @llvm.lifetime.start.p0(i64 4, ptr %23) #4
  %25 = load ptr, ptr %12, align 8, !tbaa !25
  %26 = call ptr @BIO_new_fp(ptr noundef %25, i32 noundef 0)
  store ptr %26, ptr %22, align 8, !tbaa !3
  %27 = icmp eq ptr %26, null
  br i1 %27, label %28, label %29

28:                                               ; preds = %10
  call void @ERR_new()
  call void @ERR_set_debug(ptr noundef @.str, i32 noundef 244, ptr noundef @__func__.do_pk8pkey_fp)
  call void (i32, i32, ptr, ...) @ERR_set_error(i32 noundef 9, i32 noundef 524295, ptr noundef null)
  store i32 0, ptr %11, align 4
  store i32 1, ptr %24, align 4
  br label %44

29:                                               ; preds = %10
  %30 = load ptr, ptr %22, align 8, !tbaa !3
  %31 = load ptr, ptr %13, align 8, !tbaa !8
  %32 = load i32, ptr %14, align 4, !tbaa !10
  %33 = load i32, ptr %15, align 4, !tbaa !10
  %34 = load ptr, ptr %16, align 8, !tbaa !15
  %35 = load ptr, ptr %17, align 8, !tbaa !12
  %36 = load i32, ptr %18, align 4, !tbaa !10
  %37 = load ptr, ptr %19, align 8, !tbaa !14
  %38 = load ptr, ptr %20, align 8, !tbaa !14
  %39 = load ptr, ptr %21, align 8, !tbaa !12
  %40 = call i32 @do_pk8pkey(ptr noundef %30, ptr noundef %31, i32 noundef %32, i32 noundef %33, ptr noundef %34, ptr noundef %35, i32 noundef %36, ptr noundef %37, ptr noundef %38, ptr noundef %39)
  store i32 %40, ptr %23, align 4, !tbaa !10
  %41 = load ptr, ptr %22, align 8, !tbaa !3
  %42 = call i32 @BIO_free(ptr noundef %41)
  %43 = load i32, ptr %23, align 4, !tbaa !10
  store i32 %43, ptr %11, align 4
  store i32 1, ptr %24, align 4
  br label %44

44:                                               ; preds = %29, %28
  call void @llvm.lifetime.end.p0(i64 4, ptr %23) #4
  call void @llvm.lifetime.end.p0(i64 8, ptr %22) #4
  %45 = load i32, ptr %11, align 4
  ret i32 %45
}

; Function Attrs: nounwind uwtable
define i32 @i2d_PKCS8PrivateKey_fp(ptr noundef %0, ptr noundef %1, ptr noundef %2, ptr noundef %3, i32 noundef %4, ptr noundef %5, ptr noundef %6) #0 {
  %8 = alloca ptr, align 8
  %9 = alloca ptr, align 8
  %10 = alloca ptr, align 8
  %11 = alloca ptr, align 8
  %12 = alloca i32, align 4
  %13 = alloca ptr, align 8
  %14 = alloca ptr, align 8
  store ptr %0, ptr %8, align 8, !tbaa !25
  store ptr %1, ptr %9, align 8, !tbaa !8
  store ptr %2, ptr %10, align 8, !tbaa !15
  store ptr %3, ptr %11, align 8, !tbaa !12
  store i32 %4, ptr %12, align 4, !tbaa !10
  store ptr %5, ptr %13, align 8, !tbaa !14
  store ptr %6, ptr %14, align 8, !tbaa !14
  %15 = load ptr, ptr %8, align 8, !tbaa !25
  %16 = load ptr, ptr %9, align 8, !tbaa !8
  %17 = load ptr, ptr %10, align 8, !tbaa !15
  %18 = load ptr, ptr %11, align 8, !tbaa !12
  %19 = load i32, ptr %12, align 4, !tbaa !10
  %20 = load ptr, ptr %13, align 8, !tbaa !14
  %21 = load ptr, ptr %14, align 8, !tbaa !14
  %22 = call i32 @do_pk8pkey_fp(ptr noundef %15, ptr noundef %16, i32 noundef 1, i32 noundef -1, ptr noundef %17, ptr noundef %18, i32 noundef %19, ptr noundef %20, ptr noundef %21, ptr noundef null)
  ret i32 %22
}